; ModuleID = '50/1370.c'
source_filename = "50/1370.c"
target datalayout = "e-m:e-p270:32:32-p271:32:32-p272:64:64-i64:64-f80:128-n8:16:32:64-S128"
target triple = "x86_64-pc-linux-gnu"

@.str = private unnamed_addr constant [3 x i8] c"%d\00", align 1
@.str.1 = private unnamed_addr constant [4 x i8] c"%d\0A\00", align 1

; Function Attrs: noinline nounwind uwtable
define dso_local i32 @main() #0 {
  %1 = alloca i32, align 4
  %2 = alloca i32, align 4
  %3 = alloca i32, align 4
  %4 = alloca i32, align 4
  %5 = alloca i32, align 4
  %6 = alloca [31 x i32], align 16
  store i32 0, i32* %1, align 4
  %7 = call i32 (i8*, ...) @__isoc99_scanf(i8* getelementptr inbounds ([3 x i8], [3 x i8]* @.str, i64 0, i64 0), i32* %4)
  store i32 1, i32* %2, align 4
  br label %8

8:                                                ; preds = %75, %0
  %9 = load i32, i32* %2, align 4
  %10 = icmp sle i32 %9, 12
  br i1 %10, label %11, label %78

11:                                               ; preds = %8
  %12 = load i32, i32* %2, align 4
  %13 = icmp eq i32 %12, 1
  br i1 %13, label %32, label %14

14:                                               ; preds = %11
  %15 = load i32, i32* %2, align 4
  %16 = icmp eq i32 %15, 3
  br i1 %16, label %32, label %17

17:                                               ; preds = %14
  %18 = load i32, i32* %2, align 4
  %19 = icmp eq i32 %18, 5
  br i1 %19, label %32, label %20

20:                                               ; preds = %17
  %21 = load i32, i32* %2, align 4
  %22 = icmp eq i32 %21, 7
  br i1 %22, label %32, label %23

23:                                               ; preds = %20
  %24 = load i32, i32* %2, align 4
  %25 = icmp eq i32 %24, 8
  br i1 %25, label %32, label %26

26:                                               ; preds = %23
  %27 = load i32, i32* %2, align 4
  %28 = icmp eq i32 %27, 10
  br i1 %28, label %32, label %29

29:                                               ; preds = %26
  %30 = load i32, i32* %2, align 4
  %31 = icmp eq i32 %30, 12
  br i1 %31, label %32, label %33

32:                                               ; preds = %29, %26, %23, %20, %17, %14, %11
  store i32 31, i32* %5, align 4
  br label %39

33:                                               ; preds = %29
  %34 = load i32, i32* %2, align 4
  %35 = icmp eq i32 %34, 2
  br i1 %35, label %36, label %37

36:                                               ; preds = %33
  store i32 28, i32* %5, align 4
  br label %38

37:                                               ; preds = %33
  store i32 30, i32* %5, align 4
  br label %38

38:                                               ; preds = %37, %36
  br label %39

39:                                               ; preds = %38, %32
  store i32 0, i32* %3, align 4
  br label %40

40:                                               ; preds = %64, %39
  %41 = load i32, i32* %3, align 4
  %42 = load i32, i32* %5, align 4
  %43 = icmp slt i32 %41, %42
  br i1 %43, label %44, label %67

44:                                               ; preds = %40
  %45 = load i32, i32* %4, align 4
  %46 = icmp sle i32 %45, 7
  br i1 %46, label %47, label %54

47:                                               ; preds = %44
  %48 = load i32, i32* %4, align 4
  %49 = load i32, i32* %3, align 4
  %50 = sext i32 %49 to i64
  %51 = getelementptr inbounds [31 x i32], [31 x i32]* %6, i64 0, i64 %50
  store i32 %48, i32* %51, align 4
  %52 = load i32, i32* %4, align 4
  %53 = add nsw i32 %52, 1
  store i32 %53, i32* %4, align 4
  br label %63

54:                                               ; preds = %44
  %55 = load i32, i32* %4, align 4
  %56 = sub nsw i32 %55, 7
  store i32 %56, i32* %4, align 4
  %57 = load i32, i32* %4, align 4
  %58 = load i32, i32* %3, align 4
  %59 = sext i32 %58 to i64
  %60 = getelementptr inbounds [31 x i32], [31 x i32]* %6, i64 0, i64 %59
  store i32 %57, i32* %60, align 4
  %61 = load i32, i32* %4, align 4
  %62 = add nsw i32 %61, 1
  store i32 %62, i32* %4, align 4
  br label %63

63:                                               ; preds = %54, %47
  br label %64

64:                                               ; preds = %63
  %65 = load i32, i32* %3, align 4
  %66 = add nsw i32 %65, 1
  store i32 %66, i32* %3, align 4
  br label %40

67:                                               ; preds = %40
  %68 = getelementptr inbounds [31 x i32], [31 x i32]* %6, i64 0, i64 12
  %69 = load i32, i32* %68, align 16
  %70 = icmp eq i32 %69, 5
  br i1 %70, label %71, label %74

71:                                               ; preds = %67
  %72 = load i32, i32* %2, align 4
  %73 = call i32 (i8*, ...) @printf(i8* getelementptr inbounds ([4 x i8], [4 x i8]* @.str.1, i64 0, i64 0), i32 %72)
  br label %74

74:                                               ; preds = %71, %67
  br label %75

75:                                               ; preds = %74
  %76 = load i32, i32* %2, align 4
  %77 = add nsw i32 %76, 1
  store i32 %77, i32* %2, align 4
  br label %8

78:                                               ; preds = %8
  ret i32 0
}

declare dso_local i32 @__isoc99_scanf(i8*, ...) #1

declare dso_local i32 @printf(i8*, ...) #1


!llvm.module.flags = !{!0}
!llvm.ident = !{!1}

!0 = !{i32 1, !"wchar_size", i32 4}
!1 = !{!"clang version 10.0.0-4ubuntu1 "}
